target datalayout = "e-m:e-p270:32:32-p271:32:32-p272:64:64-i64:64-i128:128-f80:128-n8:16:32:64-S128"
target triple = "x86_64-pc-linux-gnu"

%struct.__va_list_tag = type { i32, i32, ptr, ptr }

; Function Attrs: nounwind uwtable
define i32 @curl_easy_setopt(ptr noundef %0, i32 noundef %1, ...) #0 {
  %3 = alloca i32, align 4
  %4 = alloca ptr, align 8
  %5 = alloca i32, align 4
  %6 = alloca [1 x %struct.__va_list_tag], align 16
  %7 = alloca i32, align 4
  %8 = alloca ptr, align 8
  %9 = alloca i32, align 4
  store ptr %0, ptr %4, align 8, !tbaa !10
  store i32 %1, ptr %5, align 4, !tbaa !22
  call void @llvm.lifetime.start.p0(i64 24, ptr %6) #7
  call void @llvm.lifetime.start.p0(i64 4, ptr %7) #7
  call void @llvm.lifetime.start.p0(i64 8, ptr %8) #7
  %10 = load ptr, ptr %4, align 8, !tbaa !10
  store ptr %10, ptr %8, align 8, !tbaa !24
  %11 = load ptr, ptr %8, align 8, !tbaa !24
  %12 = icmp ne ptr %11, null
  br i1 %12, label %14, label %13

13:                                               ; preds = %2
  store i32 43, ptr %3, align 4
  store i32 1, ptr %9, align 4
  br label %22

14:                                               ; preds = %2
  %15 = getelementptr inbounds [1 x %struct.__va_list_tag], ptr %6, i64 0, i64 0
  call void @llvm.va_start.p0(ptr %15)
  %16 = load ptr, ptr %8, align 8, !tbaa !24
  %17 = load i32, ptr %5, align 4, !tbaa !22
  %18 = getelementptr inbounds [1 x %struct.__va_list_tag], ptr %6, i64 0, i64 0
  %19 = call i32 @Curl_vsetopt(ptr noundef %16, i32 noundef %17, ptr noundef %18)
  store i32 %19, ptr %7, align 4, !tbaa !22
  %20 = getelementptr inbounds [1 x %struct.__va_list_tag], ptr %6, i64 0, i64 0
  call void @llvm.va_end.p0(ptr %20)
  %21 = load i32, ptr %7, align 4, !tbaa !22
  store i32 %21, ptr %3, align 4
  store i32 1, ptr %9, align 4
  br label %22

22:                                               ; preds = %14, %13
  call void @llvm.lifetime.end.p0(i64 8, ptr %8) #7
  call void @llvm.lifetime.end.p0(i64 4, ptr %7) #7
  call void @llvm.lifetime.end.p0(i64 24, ptr %6) #7
  %23 = load i32, ptr %3, align 4
  ret i32 %23
}